(lp0
(S'cppflags'
p1
ccopy_reg
_reconstructor
p2
(cino.utils
SpaceList
p3
c__builtin__
list
p4
(lp5
S'-mmcu=atmega328p'
p6
aS'-DF_CPU=16000000L'
p7
aS'-DARDUINO=102'
p8
aS'-I/Applications/Arduino.app/Contents/Resources/Java/hardware/arduino/cores/arduino'
p9
aS'-ffunction-sections'
p10
aS'-fdata-sections'
p11
aS'-g'
p12
aS'-Os'
p13
aS'-w'
p14
aS'-I/Applications/Arduino.app/Contents/Resources/Java/hardware/arduino/variants/standard'
p15
aS'-I/Applications/Arduino.app/Contents/Resources/Java/hardware/arduino/cores/arduino'
p16
atp17
Rp18
tp19
a(S'cxx'
p20
S'/Applications/Arduino.app/Contents/Resources/Java/hardware/tools/avr/bin/avr-g++'
p21
tp22
a(S'arduino_libraries_dir'
p23
S'/Applications/Arduino.app/Contents/Resources/Java/libraries'
p24
tp25
a(S'avrdude'
p26
S'/Applications/Arduino.app/Contents/Resources/Java/hardware/tools/avr/bin/avrdude'
p27
tp28
a(S'ar'
p29
S'/Applications/Arduino.app/Contents/Resources/Java/hardware/tools/avr/bin/avr-ar'
p30
tp31
a(S'names'
p32
(dp33
S'cpp'
p34
S'%s.cpp'
p35
sS'obj'
p36
S'%s.o'
p37
sS'deps'
p38
S'%s.d'
p39
sS'lib'
p40
S'lib%s.a'
p41
stp42
a(S'ldflags'
p43
g2
(g3
g4
(lp44
g6
aS'-Wl,-Os'
p45
aS'-Wl,--gc-sections'
p46
atp47
Rp48
tp49
a(S'arduino_lib_version'
p50
g2
(cino.environment
Version
p51
c__builtin__
tuple
p52
(I1
I0
I2
tp53
tp54
Rp55
tp56
a(S'objcopy'
p57
S'/Applications/Arduino.app/Contents/Resources/Java/hardware/tools/avr/bin/avr-objcopy'
p58
tp59
a(S'board_models'
p60
cino.environment
BoardModels
p61
((lp62
(lp63
S'uno'
p64
a(dp65
S'bootloader'
p66
(dp67
S'extended_fuses'
p68
S'0x05'
p69
sS'high_fuses'
p70
S'0xde'
p71
sS'low_fuses'
p72
S'0xff'
p73
sS'lock_bits'
p74
S'0x0F'
p75
sS'file'
p76
S'optiboot_atmega328.hex'
p77
sS'path'
p78
S'optiboot'
p79
sS'unlock_bits'
p80
S'0x3F'
p81
ssS'build'
p82
(dp83
S'core'
p84
S'arduino'
p85
sS'mcu'
p86
S'atmega328p'
p87
sS'f_cpu'
p88
S'16000000L'
p89
sS'variant'
p90
S'standard'
p91
ssS'name'
p92
S'Arduino Uno'
p93
sS'upload'
p94
(dp95
S'speed'
p96
S'115200'
p97
sS'maximum_size'
p98
S'32256'
p99
sS'protocol'
p100
S'arduino'
p101
ssaa(lp102
S'atmega328'
p103
a(dp104
S'bootloader'
p105
(dp106
S'extended_fuses'
p107
S'0x05'
p108
sS'high_fuses'
p109
S'0xDA'
p110
sS'low_fuses'
p111
S'0xFF'
p112
sS'lock_bits'
p113
S'0x0F'
p114
sS'file'
p115
S'ATmegaBOOT_168_atmega328.hex'
p116
sS'path'
p117
S'atmega'
p118
sS'unlock_bits'
p119
S'0x3F'
p120
ssS'build'
p121
(dp122
S'core'
p123
S'arduino'
p124
sS'mcu'
p125
S'atmega328p'
p126
sS'f_cpu'
p127
S'16000000L'
p128
sS'variant'
p129
S'standard'
p130
ssS'name'
p131
S'Arduino Duemilanove w/ ATmega328'
p132
sS'upload'
p133
(dp134
S'speed'
p135
S'57600'
p136
sS'maximum_size'
p137
S'30720'
p138
sS'protocol'
p139
S'arduino'
p140
ssaa(lp141
S'diecimila'
p142
a(dp143
S'bootloader'
p144
(dp145
S'extended_fuses'
p146
S'0x00'
p147
sS'high_fuses'
p148
S'0xdd'
p149
sS'low_fuses'
p150
S'0xff'
p151
sS'lock_bits'
p152
S'0x0F'
p153
sS'file'
p154
S'ATmegaBOOT_168_diecimila.hex'
p155
sS'path'
p156
S'atmega'
p157
sS'unlock_bits'
p158
S'0x3F'
p159
ssS'build'
p160
(dp161
S'core'
p162
S'arduino'
p163
sS'mcu'
p164
S'atmega168'
p165
sS'f_cpu'
p166
S'16000000L'
p167
sS'variant'
p168
S'standard'
p169
ssS'name'
p170
S'Arduino Diecimila or Duemilanove w/ ATmega168'
p171
sS'upload'
p172
(dp173
S'speed'
p174
S'19200'
p175
sS'maximum_size'
p176
S'14336'
p177
sS'protocol'
p178
S'arduino'
p179
ssaa(lp180
S'nano328'
p181
a(dp182
S'bootloader'
p183
(dp184
S'extended_fuses'
p185
S'0x05'
p186
sS'high_fuses'
p187
S'0xDA'
p188
sS'low_fuses'
p189
S'0xFF'
p190
sS'lock_bits'
p191
S'0x0F'
p192
sS'file'
p193
S'ATmegaBOOT_168_atmega328.hex'
p194
sS'path'
p195
S'atmega'
p196
sS'unlock_bits'
p197
S'0x3F'
p198
ssS'build'
p199
(dp200
S'core'
p201
S'arduino'
p202
sS'mcu'
p203
S'atmega328p'
p204
sS'f_cpu'
p205
S'16000000L'
p206
sS'variant'
p207
S'eightanaloginputs'
p208
ssS'name'
p209
S'Arduino Nano w/ ATmega328'
p210
sS'upload'
p211
(dp212
S'speed'
p213
S'57600'
p214
sS'maximum_size'
p215
S'30720'
p216
sS'protocol'
p217
S'arduino'
p218
ssaa(lp219
S'nano'
p220
a(dp221
S'bootloader'
p222
(dp223
S'extended_fuses'
p224
S'0x00'
p225
sS'high_fuses'
p226
S'0xdd'
p227
sS'low_fuses'
p228
S'0xff'
p229
sS'lock_bits'
p230
S'0x0F'
p231
sS'file'
p232
S'ATmegaBOOT_168_diecimila.hex'
p233
sS'path'
p234
S'atmega'
p235
sS'unlock_bits'
p236
S'0x3F'
p237
ssS'build'
p238
(dp239
S'core'
p240
S'arduino'
p241
sS'mcu'
p242
S'atmega168'
p243
sS'f_cpu'
p244
S'16000000L'
p245
sS'variant'
p246
S'eightanaloginputs'
p247
ssS'name'
p248
S'Arduino Nano w/ ATmega168'
p249
sS'upload'
p250
(dp251
S'speed'
p252
S'19200'
p253
sS'maximum_size'
p254
S'14336'
p255
sS'protocol'
p256
S'arduino'
p257
ssaa(lp258
S'mega2560'
p259
a(dp260
S'bootloader'
p261
(dp262
S'extended_fuses'
p263
S'0xFD'
p264
sS'high_fuses'
p265
S'0xD8'
p266
sS'low_fuses'
p267
S'0xFF'
p268
sS'lock_bits'
p269
S'0x0F'
p270
sS'file'
p271
S'stk500boot_v2_mega2560.hex'
p272
sS'path'
p273
S'stk500v2'
p274
sS'unlock_bits'
p275
S'0x3F'
p276
ssS'build'
p277
(dp278
S'core'
p279
S'arduino'
p280
sS'mcu'
p281
S'atmega2560'
p282
sS'f_cpu'
p283
S'16000000L'
p284
sS'variant'
p285
S'mega'
p286
ssS'name'
p287
S'Arduino Mega 2560 or Mega ADK'
p288
sS'upload'
p289
(dp290
S'speed'
p291
S'115200'
p292
sS'maximum_size'
p293
S'258048'
p294
sS'protocol'
p295
S'wiring'
p296
ssaa(lp297
S'mega'
p298
a(dp299
S'bootloader'
p300
(dp301
S'extended_fuses'
p302
S'0xF5'
p303
sS'high_fuses'
p304
S'0xDA'
p305
sS'low_fuses'
p306
S'0xFF'
p307
sS'lock_bits'
p308
S'0x0F'
p309
sS'file'
p310
S'ATmegaBOOT_168_atmega1280.hex'
p311
sS'path'
p312
S'atmega'
p313
sS'unlock_bits'
p314
S'0x3F'
p315
ssS'build'
p316
(dp317
S'core'
p318
S'arduino'
p319
sS'mcu'
p320
S'atmega1280'
p321
sS'f_cpu'
p322
S'16000000L'
p323
sS'variant'
p324
S'mega'
p325
ssS'name'
p326
S'Arduino Mega (ATmega1280)'
p327
sS'upload'
p328
(dp329
S'speed'
p330
S'57600'
p331
sS'maximum_size'
p332
S'126976'
p333
sS'protocol'
p334
S'arduino'
p335
ssaa(lp336
S'leonardo'
p337
a(dp338
S'bootloader'
p339
(dp340
S'extended_fuses'
p341
S'0xcb'
p342
sS'high_fuses'
p343
S'0xd8'
p344
sS'low_fuses'
p345
S'0xff'
p346
sS'lock_bits'
p347
S'0x2F'
p348
sS'file'
p349
S'Caterina-Leonardo.hex'
p350
sS'path'
p351
S'caterina'
p352
sS'unlock_bits'
p353
S'0x3F'
p354
ssS'build'
p355
(dp356
S'core'
p357
S'arduino'
p358
sS'f_cpu'
p359
S'16000000L'
p360
sS'vid'
p361
S'0x2341'
p362
sS'pid'
p363
S'0x8036'
p364
sS'variant'
p365
S'leonardo'
p366
sS'mcu'
p367
S'atmega32u4'
p368
ssS'name'
p369
S'Arduino Leonardo'
p370
sS'upload'
p371
(dp372
S'speed'
p373
S'57600'
p374
sS'maximum_size'
p375
S'28672'
p376
sS'protocol'
p377
S'avr109'
p378
sS'disable_flushing'
p379
S'true'
p380
ssaa(lp381
S'micro'
p382
a(dp383
S'bootloader'
p384
(dp385
S'extended_fuses'
p386
S'0xcb'
p387
sS'high_fuses'
p388
S'0xd8'
p389
sS'low_fuses'
p390
S'0xff'
p391
sS'lock_bits'
p392
S'0x2F'
p393
sS'file'
p394
S'Caterina-Micro.hex'
p395
sS'path'
p396
S'caterina'
p397
sS'unlock_bits'
p398
S'0x3F'
p399
ssS'build'
p400
(dp401
S'core'
p402
S'arduino'
p403
sS'f_cpu'
p404
S'16000000L'
p405
sS'vid'
p406
S'0x2341'
p407
sS'pid'
p408
S'0x8037'
p409
sS'variant'
p410
S'micro'
p411
sS'mcu'
p412
S'atmega32u4'
p413
ssS'name'
p414
S'Arduino Micro'
p415
sS'upload'
p416
(dp417
S'speed'
p418
S'57600'
p419
sS'maximum_size'
p420
S'28672'
p421
sS'protocol'
p422
S'avr109'
p423
sS'disable_flushing'
p424
S'true'
p425
ssaa(lp426
S'mini328'
p427
a(dp428
S'bootloader'
p429
(dp430
S'extended_fuses'
p431
S'0x05'
p432
sS'high_fuses'
p433
S'0xd8'
p434
sS'low_fuses'
p435
S'0xff'
p436
sS'lock_bits'
p437
S'0x0F'
p438
sS'file'
p439
S'optiboot_atmega328-Mini.hex'
p440
sS'path'
p441
S'optiboot'
p442
sS'unlock_bits'
p443
S'0x3F'
p444
ssS'build'
p445
(dp446
S'core'
p447
S'arduino'
p448
sS'mcu'
p449
S'atmega328p'
p450
sS'f_cpu'
p451
S'16000000L'
p452
sS'variant'
p453
S'eightanaloginputs'
p454
ssS'name'
p455
S'Arduino Mini w/ ATmega328'
p456
sS'upload'
p457
(dp458
S'speed'
p459
S'115200'
p460
sS'maximum_size'
p461
S'28672'
p462
sS'protocol'
p463
S'arduino'
p464
ssaa(lp465
S'mini'
p466
a(dp467
S'bootloader'
p468
(dp469
S'extended_fuses'
p470
S'0x00'
p471
sS'high_fuses'
p472
S'0xdd'
p473
sS'low_fuses'
p474
S'0xff'
p475
sS'lock_bits'
p476
S'0x0F'
p477
sS'file'
p478
S'ATmegaBOOT_168_ng.hex'
p479
sS'path'
p480
S'atmega'
p481
sS'unlock_bits'
p482
S'0x3F'
p483
ssS'build'
p484
(dp485
S'core'
p486
S'arduino'
p487
sS'mcu'
p488
S'atmega168'
p489
sS'f_cpu'
p490
S'16000000L'
p491
sS'variant'
p492
S'eightanaloginputs'
p493
ssS'name'
p494
S'Arduino Mini w/ ATmega168'
p495
sS'upload'
p496
(dp497
S'speed'
p498
S'19200'
p499
sS'maximum_size'
p500
S'14336'
p501
sS'protocol'
p502
S'arduino'
p503
ssaa(lp504
S'ethernet'
p505
a(dp506
S'bootloader'
p507
(dp508
S'extended_fuses'
p509
S'0x05'
p510
sS'high_fuses'
p511
S'0xde'
p512
sS'low_fuses'
p513
S'0xff'
p514
sS'lock_bits'
p515
S'0x0F'
p516
sS'file'
p517
S'optiboot_atmega328.hex'
p518
sS'path'
p519
S'optiboot'
p520
sS'unlock_bits'
p521
S'0x3F'
p522
ssS'build'
p523
(dp524
S'f_cpu'
p525
S'16000000L'
p526
sS'mcu'
p527
S'atmega328p'
p528
sS'variant'
p529
S'standard'
p530
sS'core'
p531
S'arduino'
p532
ssS'name'
p533
S'Arduino Ethernet'
p534
sS'upload'
p535
(dp536
S'speed'
p537
S'115200'
p538
sS'maximum_size'
p539
S'32256'
p540
sS'protocol'
p541
S'arduino'
p542
ssaa(lp543
S'fio'
p544
a(dp545
S'bootloader'
p546
(dp547
S'extended_fuses'
p548
S'0x05'
p549
sS'high_fuses'
p550
S'0xDA'
p551
sS'low_fuses'
p552
S'0xFF'
p553
sS'lock_bits'
p554
S'0x0F'
p555
sS'file'
p556
S'ATmegaBOOT_168_atmega328_pro_8MHz.hex'
p557
sS'path'
p558
S'arduino:atmega'
p559
sS'unlock_bits'
p560
S'0x3F'
p561
ssS'build'
p562
(dp563
S'core'
p564
S'arduino'
p565
sS'mcu'
p566
S'atmega328p'
p567
sS'f_cpu'
p568
S'8000000L'
p569
sS'variant'
p570
S'eightanaloginputs'
p571
ssS'name'
p572
S'Arduino Fio'
p573
sS'upload'
p574
(dp575
S'speed'
p576
S'57600'
p577
sS'maximum_size'
p578
S'30720'
p579
sS'protocol'
p580
S'arduino'
p581
ssaa(lp582
S'bt328'
p583
a(dp584
S'bootloader'
p585
(dp586
S'extended_fuses'
p587
S'0x05'
p588
sS'high_fuses'
p589
S'0xd8'
p590
sS'low_fuses'
p591
S'0xff'
p592
sS'lock_bits'
p593
S'0x0F'
p594
sS'file'
p595
S'ATmegaBOOT_168_atmega328_bt.hex'
p596
sS'path'
p597
S'bt'
p598
sS'unlock_bits'
p599
S'0x3F'
p600
ssS'build'
p601
(dp602
S'core'
p603
S'arduino'
p604
sS'mcu'
p605
S'atmega328p'
p606
sS'f_cpu'
p607
S'16000000L'
p608
sS'variant'
p609
S'eightanaloginputs'
p610
ssS'name'
p611
S'Arduino BT w/ ATmega328'
p612
sS'upload'
p613
(dp614
S'speed'
p615
S'19200'
p616
sS'maximum_size'
p617
S'28672'
p618
sS'protocol'
p619
S'arduino'
p620
sS'disable_flushing'
p621
S'true'
p622
ssaa(lp623
S'bt'
p624
a(dp625
S'bootloader'
p626
(dp627
S'extended_fuses'
p628
S'0x00'
p629
sS'high_fuses'
p630
S'0xdd'
p631
sS'low_fuses'
p632
S'0xff'
p633
sS'lock_bits'
p634
S'0x0F'
p635
sS'file'
p636
S'ATmegaBOOT_168.hex'
p637
sS'path'
p638
S'bt'
p639
sS'unlock_bits'
p640
S'0x3F'
p641
ssS'build'
p642
(dp643
S'core'
p644
S'arduino'
p645
sS'mcu'
p646
S'atmega168'
p647
sS'f_cpu'
p648
S'16000000L'
p649
sS'variant'
p650
S'eightanaloginputs'
p651
ssS'name'
p652
S'Arduino BT w/ ATmega168'
p653
sS'upload'
p654
(dp655
S'speed'
p656
S'19200'
p657
sS'maximum_size'
p658
S'14336'
p659
sS'protocol'
p660
S'arduino'
p661
sS'disable_flushing'
p662
S'true'
p663
ssaa(lp664
S'LilyPadUSB'
p665
a(dp666
S'bootloader'
p667
(dp668
S'extended_fuses'
p669
S'0xce'
p670
sS'high_fuses'
p671
S'0xd8'
p672
sS'low_fuses'
p673
S'0xff'
p674
sS'lock_bits'
p675
S'0x2F'
p676
sS'file'
p677
S'Caterina-LilyPadUSB.hex'
p678
sS'path'
p679
S'caterina-LilyPadUSB'
p680
sS'unlock_bits'
p681
S'0x3F'
p682
ssS'build'
p683
(dp684
S'core'
p685
S'arduino'
p686
sS'f_cpu'
p687
S'8000000L'
p688
sS'vid'
p689
S'0x1B4F'
p690
sS'pid'
p691
S'0x9208'
p692
sS'variant'
p693
S'leonardo'
p694
sS'mcu'
p695
S'atmega32u4'
p696
ssS'name'
p697
S'LilyPad Arduino USB'
p698
sS'upload'
p699
(dp700
S'speed'
p701
S'57600'
p702
sS'maximum_size'
p703
S'28672'
p704
sS'protocol'
p705
S'avr109'
p706
sS'disable_flushing'
p707
S'true'
p708
ssaa(lp709
S'lilypad328'
p710
a(dp711
S'bootloader'
p712
(dp713
S'extended_fuses'
p714
S'0x05'
p715
sS'high_fuses'
p716
S'0xDA'
p717
sS'low_fuses'
p718
S'0xFF'
p719
sS'lock_bits'
p720
S'0x0F'
p721
sS'file'
p722
S'ATmegaBOOT_168_atmega328_pro_8MHz.hex'
p723
sS'path'
p724
S'atmega'
p725
sS'unlock_bits'
p726
S'0x3F'
p727
ssS'build'
p728
(dp729
S'core'
p730
S'arduino'
p731
sS'mcu'
p732
S'atmega328p'
p733
sS'f_cpu'
p734
S'8000000L'
p735
sS'variant'
p736
S'standard'
p737
ssS'name'
p738
S'LilyPad Arduino w/ ATmega328'
p739
sS'upload'
p740
(dp741
S'speed'
p742
S'57600'
p743
sS'maximum_size'
p744
S'30720'
p745
sS'protocol'
p746
S'arduino'
p747
ssaa(lp748
S'lilypad'
p749
a(dp750
S'bootloader'
p751
(dp752
S'extended_fuses'
p753
S'0x00'
p754
sS'high_fuses'
p755
S'0xdd'
p756
sS'low_fuses'
p757
S'0xe2'
p758
sS'lock_bits'
p759
S'0x0F'
p760
sS'file'
p761
S'LilyPadBOOT_168.hex'
p762
sS'path'
p763
S'lilypad'
p764
sS'unlock_bits'
p765
S'0x3F'
p766
ssS'build'
p767
(dp768
S'core'
p769
S'arduino'
p770
sS'mcu'
p771
S'atmega168'
p772
sS'f_cpu'
p773
S'8000000L'
p774
sS'variant'
p775
S'standard'
p776
ssS'name'
p777
S'LilyPad Arduino w/ ATmega168'
p778
sS'upload'
p779
(dp780
S'speed'
p781
S'19200'
p782
sS'maximum_size'
p783
S'14336'
p784
sS'protocol'
p785
S'arduino'
p786
ssaa(lp787
S'pro5v328'
p788
a(dp789
S'bootloader'
p790
(dp791
S'extended_fuses'
p792
S'0x05'
p793
sS'high_fuses'
p794
S'0xDA'
p795
sS'low_fuses'
p796
S'0xFF'
p797
sS'lock_bits'
p798
S'0x0F'
p799
sS'file'
p800
S'ATmegaBOOT_168_atmega328.hex'
p801
sS'path'
p802
S'atmega'
p803
sS'unlock_bits'
p804
S'0x3F'
p805
ssS'build'
p806
(dp807
S'core'
p808
S'arduino'
p809
sS'mcu'
p810
S'atmega328p'
p811
sS'f_cpu'
p812
S'16000000L'
p813
sS'variant'
p814
S'standard'
p815
ssS'name'
p816
S'Arduino Pro or Pro Mini (5V, 16 MHz) w/ ATmega328'
p817
sS'upload'
p818
(dp819
S'speed'
p820
S'57600'
p821
sS'maximum_size'
p822
S'30720'
p823
sS'protocol'
p824
S'arduino'
p825
ssaa(lp826
S'pro5v'
p827
a(dp828
S'bootloader'
p829
(dp830
S'extended_fuses'
p831
S'0x00'
p832
sS'high_fuses'
p833
S'0xdd'
p834
sS'low_fuses'
p835
S'0xff'
p836
sS'lock_bits'
p837
S'0x0F'
p838
sS'file'
p839
S'ATmegaBOOT_168_diecimila.hex'
p840
sS'path'
p841
S'atmega'
p842
sS'unlock_bits'
p843
S'0x3F'
p844
ssS'build'
p845
(dp846
S'core'
p847
S'arduino'
p848
sS'mcu'
p849
S'atmega168'
p850
sS'f_cpu'
p851
S'16000000L'
p852
sS'variant'
p853
S'standard'
p854
ssS'name'
p855
S'Arduino Pro or Pro Mini (5V, 16 MHz) w/ ATmega168'
p856
sS'upload'
p857
(dp858
S'speed'
p859
S'19200'
p860
sS'maximum_size'
p861
S'14336'
p862
sS'protocol'
p863
S'arduino'
p864
ssaa(lp865
S'pro328'
p866
a(dp867
S'bootloader'
p868
(dp869
S'extended_fuses'
p870
S'0x05'
p871
sS'high_fuses'
p872
S'0xDA'
p873
sS'low_fuses'
p874
S'0xFF'
p875
sS'lock_bits'
p876
S'0x0F'
p877
sS'file'
p878
S'ATmegaBOOT_168_atmega328_pro_8MHz.hex'
p879
sS'path'
p880
S'atmega'
p881
sS'unlock_bits'
p882
S'0x3F'
p883
ssS'build'
p884
(dp885
S'core'
p886
S'arduino'
p887
sS'mcu'
p888
S'atmega328p'
p889
sS'f_cpu'
p890
S'8000000L'
p891
sS'variant'
p892
S'standard'
p893
ssS'name'
p894
S'Arduino Pro or Pro Mini (3.3V, 8 MHz) w/ ATmega328'
p895
sS'upload'
p896
(dp897
S'speed'
p898
S'57600'
p899
sS'maximum_size'
p900
S'30720'
p901
sS'protocol'
p902
S'arduino'
p903
ssaa(lp904
S'pro'
p905
a(dp906
S'bootloader'
p907
(dp908
S'extended_fuses'
p909
S'0x00'
p910
sS'high_fuses'
p911
S'0xdd'
p912
sS'low_fuses'
p913
S'0xc6'
p914
sS'lock_bits'
p915
S'0x0F'
p916
sS'file'
p917
S'ATmegaBOOT_168_pro_8MHz.hex'
p918
sS'path'
p919
S'atmega'
p920
sS'unlock_bits'
p921
S'0x3F'
p922
ssS'build'
p923
(dp924
S'core'
p925
S'arduino'
p926
sS'mcu'
p927
S'atmega168'
p928
sS'f_cpu'
p929
S'8000000L'
p930
sS'variant'
p931
S'standard'
p932
ssS'name'
p933
S'Arduino Pro or Pro Mini (3.3V, 8 MHz) w/ ATmega168'
p934
sS'upload'
p935
(dp936
S'speed'
p937
S'19200'
p938
sS'maximum_size'
p939
S'14336'
p940
sS'protocol'
p941
S'arduino'
p942
ssaa(lp943
S'atmega168'
p944
a(dp945
S'bootloader'
p946
(dp947
S'extended_fuses'
p948
S'0x00'
p949
sS'high_fuses'
p950
S'0xdd'
p951
sS'low_fuses'
p952
S'0xff'
p953
sS'lock_bits'
p954
S'0x0F'
p955
sS'file'
p956
S'ATmegaBOOT_168_ng.hex'
p957
sS'path'
p958
S'atmega'
p959
sS'unlock_bits'
p960
S'0x3F'
p961
ssS'build'
p962
(dp963
S'core'
p964
S'arduino'
p965
sS'mcu'
p966
S'atmega168'
p967
sS'f_cpu'
p968
S'16000000L'
p969
sS'variant'
p970
S'standard'
p971
ssS'name'
p972
S'Arduino NG or older w/ ATmega168'
p973
sS'upload'
p974
(dp975
S'speed'
p976
S'19200'
p977
sS'maximum_size'
p978
S'14336'
p979
sS'protocol'
p980
S'arduino'
p981
ssaa(lp982
S'atmega8'
p983
a(dp984
S'bootloader'
p985
(dp986
S'high_fuses'
p987
S'0xca'
p988
sS'low_fuses'
p989
S'0xdf'
p990
sS'lock_bits'
p991
S'0x0F'
p992
sS'file'
p993
S'ATmegaBOOT.hex'
p994
sS'path'
p995
S'atmega8'
p996
sS'unlock_bits'
p997
S'0x3F'
p998
ssS'build'
p999
(dp1000
S'core'
p1001
S'arduino'
p1002
sS'mcu'
p1003
S'atmega8'
p1004
sS'f_cpu'
p1005
S'16000000L'
p1006
sS'variant'
p1007
S'standard'
p1008
ssS'name'
p1009
S'Arduino NG or older w/ ATmega8'
p1010
sS'upload'
p1011
(dp1012
S'speed'
p1013
S'19200'
p1014
sS'maximum_size'
p1015
S'7168'
p1016
sS'protocol'
p1017
S'arduino'
p1018
ssaatp1019
Rp1020
(dp1021
S'default'
p1022
S'uno'
p1023
sbtp1024
a(S'used_libs'
p1025
(lp1026
S'/Applications/Arduino.app/Contents/Resources/Java/hardware/arduino/cores/arduino'
p1027
atp1028
a(S'make'
p1029
S'/Applications/Arduino.app/Contents/Resources/Java/hardware/tools/avr/bin/make'
p1030
tp1031
a(S'build_dir'
p1032
S'.build/uno'
p1033
tp1034
a(S'cc'
p1035
S'/Applications/Arduino.app/Contents/Resources/Java/hardware/tools/avr/bin/avr-gcc'
p1036
tp1037
a(S'cflags'
p1038
g2
(g3
g4
(lp1039
tp1040
Rp1041
tp1042
a(S'cxxflags'
p1043
g2
(g3
g4
(lp1044
S'-fno-exceptions'
p1045
atp1046
Rp1047
tp1048
a(S'arduino_variants_dir'
p1049
S'/Applications/Arduino.app/Contents/Resources/Java/hardware/arduino/variants'
p1050
tp1051
a(S'serial'
p1052
S'/usr/local/bin/picocom'
p1053
tp1054
a(S'stty'
p1055
S'/bin/stty'
p1056
tp1057
a(S'version.txt'
p1058
S'/Applications/Arduino.app/Contents/Resources/Java/lib/version.txt'
p1059
tp1060
a(S'arduino_core_dir'
p1061
g1027
tp1062
a(S'boards.txt'
p1063
S'/Applications/Arduino.app/Contents/Resources/Java/hardware/arduino/boards.txt'
p1064
tp1065
a(S'avrdude.conf'
p1066
S'/Applications/Arduino.app/Contents/Resources/Java/hardware/tools/avr/etc/avrdude.conf'
p1067
tp1068
a(S'deps'
p1069
g2
(g3
g4
(lp1070
S'.build/uno/src/dependencies.d'
p1071
aS'.build/uno/arduino/dependencies.d'
p1072
atp1073
Rp1074
tp1075
a.