(lp0
(S'cppflags'
p1
ccopy_reg
_reconstructor
p2
(cino.utils
SpaceList
p3
c__builtin__
list
p4
(lp5
S'-mmcu=atmega328p'
p6
aS'-DF_CPU=16000000L'
p7
aS'-DARDUINO=102'
p8
aS'-I/Applications/Arduino.app/Contents/Resources/Java/hardware/arduino/cores/arduino'
p9
aS'-ffunction-sections'
p10
aS'-fdata-sections'
p11
aS'-g'
p12
aS'-Os'
p13
aS'-w'
p14
aS'-I/Applications/Arduino.app/Contents/Resources/Java/hardware/arduino/variants/standard'
p15
aS'-I/Applications/Arduino.app/Contents/Resources/Java/hardware/arduino/cores/arduino'
p16
atp17
Rp18
tp19
a(S'cxx'
p20
S'/Applications/Arduino.app/Contents/Resources/Java/hardware/tools/avr/bin/avr-g++'
p21
tp22
a(S'build_dir'
p23
S'.build/uno'
p24
tp25
a(S'avrdude'
p26
S'/Applications/Arduino.app/Contents/Resources/Java/hardware/tools/avr/bin/avrdude'
p27
tp28
a(S'ar'
p29
S'/Applications/Arduino.app/Contents/Resources/Java/hardware/tools/avr/bin/avr-ar'
p30
tp31
a(S'names'
p32
(dp33
S'cpp'
p34
S'%s.cpp'
p35
sS'obj'
p36
S'%s.o'
p37
sS'deps'
p38
S'%s.d'
p39
sS'lib'
p40
S'lib%s.a'
p41
stp42
a(S'ldflags'
p43
g2
(g3
g4
(lp44
g6
aS'-Wl,-Os'
p45
aS'-Wl,--gc-sections'
p46
atp47
Rp48
tp49
a(S'arduino_lib_version'
p50
g2
(cino.environment
Version
p51
c__builtin__
tuple
p52
(I1
I0
I2
tp53
tp54
Rp55
tp56
a(S'objcopy'
p57
S'/Applications/Arduino.app/Contents/Resources/Java/hardware/tools/avr/bin/avr-objcopy'
p58
tp59
a(S'board_models'
p60
cino.environment
BoardModels
p61
((lp62
(lp63
S'uno'
p64
a(dp65
S'bootloader'
p66
(dp67
S'extended_fuses'
p68
S'0x05'
p69
sS'high_fuses'
p70
S'0xde'
p71
sS'low_fuses'
p72
S'0xff'
p73
sS'lock_bits'
p74
S'0x0F'
p75
sS'file'
p76
S'optiboot_atmega328.hex'
p77
sS'path'
p78
S'optiboot'
p79
sS'unlock_bits'
p80
S'0x3F'
p81
ssS'upload'
p82
(dp83
S'protocol'
p84
S'arduino'
p85
sS'maximum_size'
p86
S'32256'
p87
sS'speed'
p88
S'115200'
p89
ssS'build'
p90
(dp91
S'core'
p92
S'arduino'
p93
sS'mcu'
p94
S'atmega328p'
p95
sS'f_cpu'
p96
S'16000000L'
p97
sS'variant'
p98
S'standard'
p99
ssS'name'
p100
S'Arduino Uno'
p101
saa(lp102
S'atmega328'
p103
a(dp104
S'bootloader'
p105
(dp106
S'extended_fuses'
p107
S'0x05'
p108
sS'high_fuses'
p109
S'0xDA'
p110
sS'low_fuses'
p111
S'0xFF'
p112
sS'lock_bits'
p113
S'0x0F'
p114
sS'file'
p115
S'ATmegaBOOT_168_atmega328.hex'
p116
sS'path'
p117
S'atmega'
p118
sS'unlock_bits'
p119
S'0x3F'
p120
ssS'upload'
p121
(dp122
S'protocol'
p123
S'arduino'
p124
sS'maximum_size'
p125
S'30720'
p126
sS'speed'
p127
S'57600'
p128
ssS'build'
p129
(dp130
S'core'
p131
S'arduino'
p132
sS'mcu'
p133
S'atmega328p'
p134
sS'f_cpu'
p135
S'16000000L'
p136
sS'variant'
p137
S'standard'
p138
ssS'name'
p139
S'Arduino Duemilanove w/ ATmega328'
p140
saa(lp141
S'diecimila'
p142
a(dp143
S'bootloader'
p144
(dp145
S'extended_fuses'
p146
S'0x00'
p147
sS'high_fuses'
p148
S'0xdd'
p149
sS'low_fuses'
p150
S'0xff'
p151
sS'lock_bits'
p152
S'0x0F'
p153
sS'file'
p154
S'ATmegaBOOT_168_diecimila.hex'
p155
sS'path'
p156
S'atmega'
p157
sS'unlock_bits'
p158
S'0x3F'
p159
ssS'upload'
p160
(dp161
S'protocol'
p162
S'arduino'
p163
sS'maximum_size'
p164
S'14336'
p165
sS'speed'
p166
S'19200'
p167
ssS'build'
p168
(dp169
S'core'
p170
S'arduino'
p171
sS'mcu'
p172
S'atmega168'
p173
sS'f_cpu'
p174
S'16000000L'
p175
sS'variant'
p176
S'standard'
p177
ssS'name'
p178
S'Arduino Diecimila or Duemilanove w/ ATmega168'
p179
saa(lp180
S'nano328'
p181
a(dp182
S'bootloader'
p183
(dp184
S'extended_fuses'
p185
S'0x05'
p186
sS'high_fuses'
p187
S'0xDA'
p188
sS'low_fuses'
p189
S'0xFF'
p190
sS'lock_bits'
p191
S'0x0F'
p192
sS'file'
p193
S'ATmegaBOOT_168_atmega328.hex'
p194
sS'path'
p195
S'atmega'
p196
sS'unlock_bits'
p197
S'0x3F'
p198
ssS'upload'
p199
(dp200
S'protocol'
p201
S'arduino'
p202
sS'maximum_size'
p203
S'30720'
p204
sS'speed'
p205
S'57600'
p206
ssS'build'
p207
(dp208
S'core'
p209
S'arduino'
p210
sS'mcu'
p211
S'atmega328p'
p212
sS'f_cpu'
p213
S'16000000L'
p214
sS'variant'
p215
S'eightanaloginputs'
p216
ssS'name'
p217
S'Arduino Nano w/ ATmega328'
p218
saa(lp219
S'nano'
p220
a(dp221
S'bootloader'
p222
(dp223
S'extended_fuses'
p224
S'0x00'
p225
sS'high_fuses'
p226
S'0xdd'
p227
sS'low_fuses'
p228
S'0xff'
p229
sS'lock_bits'
p230
S'0x0F'
p231
sS'file'
p232
S'ATmegaBOOT_168_diecimila.hex'
p233
sS'path'
p234
S'atmega'
p235
sS'unlock_bits'
p236
S'0x3F'
p237
ssS'upload'
p238
(dp239
S'protocol'
p240
S'arduino'
p241
sS'maximum_size'
p242
S'14336'
p243
sS'speed'
p244
S'19200'
p245
ssS'build'
p246
(dp247
S'core'
p248
S'arduino'
p249
sS'mcu'
p250
S'atmega168'
p251
sS'f_cpu'
p252
S'16000000L'
p253
sS'variant'
p254
S'eightanaloginputs'
p255
ssS'name'
p256
S'Arduino Nano w/ ATmega168'
p257
saa(lp258
S'mega2560'
p259
a(dp260
S'bootloader'
p261
(dp262
S'extended_fuses'
p263
S'0xFD'
p264
sS'high_fuses'
p265
S'0xD8'
p266
sS'low_fuses'
p267
S'0xFF'
p268
sS'lock_bits'
p269
S'0x0F'
p270
sS'file'
p271
S'stk500boot_v2_mega2560.hex'
p272
sS'path'
p273
S'stk500v2'
p274
sS'unlock_bits'
p275
S'0x3F'
p276
ssS'upload'
p277
(dp278
S'protocol'
p279
S'wiring'
p280
sS'maximum_size'
p281
S'258048'
p282
sS'speed'
p283
S'115200'
p284
ssS'build'
p285
(dp286
S'core'
p287
S'arduino'
p288
sS'mcu'
p289
S'atmega2560'
p290
sS'f_cpu'
p291
S'16000000L'
p292
sS'variant'
p293
S'mega'
p294
ssS'name'
p295
S'Arduino Mega 2560 or Mega ADK'
p296
saa(lp297
S'mega'
p298
a(dp299
S'bootloader'
p300
(dp301
S'extended_fuses'
p302
S'0xF5'
p303
sS'high_fuses'
p304
S'0xDA'
p305
sS'low_fuses'
p306
S'0xFF'
p307
sS'lock_bits'
p308
S'0x0F'
p309
sS'file'
p310
S'ATmegaBOOT_168_atmega1280.hex'
p311
sS'path'
p312
S'atmega'
p313
sS'unlock_bits'
p314
S'0x3F'
p315
ssS'upload'
p316
(dp317
S'protocol'
p318
S'arduino'
p319
sS'maximum_size'
p320
S'126976'
p321
sS'speed'
p322
S'57600'
p323
ssS'build'
p324
(dp325
S'core'
p326
S'arduino'
p327
sS'mcu'
p328
S'atmega1280'
p329
sS'f_cpu'
p330
S'16000000L'
p331
sS'variant'
p332
S'mega'
p333
ssS'name'
p334
S'Arduino Mega (ATmega1280)'
p335
saa(lp336
S'leonardo'
p337
a(dp338
S'bootloader'
p339
(dp340
S'extended_fuses'
p341
S'0xcb'
p342
sS'high_fuses'
p343
S'0xd8'
p344
sS'low_fuses'
p345
S'0xff'
p346
sS'lock_bits'
p347
S'0x2F'
p348
sS'file'
p349
S'Caterina-Leonardo.hex'
p350
sS'path'
p351
S'caterina'
p352
sS'unlock_bits'
p353
S'0x3F'
p354
ssS'upload'
p355
(dp356
S'protocol'
p357
S'avr109'
p358
sS'maximum_size'
p359
S'28672'
p360
sS'speed'
p361
S'57600'
p362
sS'disable_flushing'
p363
S'true'
p364
ssS'build'
p365
(dp366
S'core'
p367
S'arduino'
p368
sS'f_cpu'
p369
S'16000000L'
p370
sS'vid'
p371
S'0x2341'
p372
sS'pid'
p373
S'0x8036'
p374
sS'variant'
p375
S'leonardo'
p376
sS'mcu'
p377
S'atmega32u4'
p378
ssS'name'
p379
S'Arduino Leonardo'
p380
saa(lp381
S'micro'
p382
a(dp383
S'bootloader'
p384
(dp385
S'extended_fuses'
p386
S'0xcb'
p387
sS'high_fuses'
p388
S'0xd8'
p389
sS'low_fuses'
p390
S'0xff'
p391
sS'lock_bits'
p392
S'0x2F'
p393
sS'file'
p394
S'Caterina-Micro.hex'
p395
sS'path'
p396
S'caterina'
p397
sS'unlock_bits'
p398
S'0x3F'
p399
ssS'upload'
p400
(dp401
S'protocol'
p402
S'avr109'
p403
sS'maximum_size'
p404
S'28672'
p405
sS'speed'
p406
S'57600'
p407
sS'disable_flushing'
p408
S'true'
p409
ssS'build'
p410
(dp411
S'core'
p412
S'arduino'
p413
sS'f_cpu'
p414
S'16000000L'
p415
sS'vid'
p416
S'0x2341'
p417
sS'pid'
p418
S'0x8037'
p419
sS'variant'
p420
S'micro'
p421
sS'mcu'
p422
S'atmega32u4'
p423
ssS'name'
p424
S'Arduino Micro'
p425
saa(lp426
S'mini328'
p427
a(dp428
S'bootloader'
p429
(dp430
S'extended_fuses'
p431
S'0x05'
p432
sS'high_fuses'
p433
S'0xd8'
p434
sS'low_fuses'
p435
S'0xff'
p436
sS'lock_bits'
p437
S'0x0F'
p438
sS'file'
p439
S'optiboot_atmega328-Mini.hex'
p440
sS'path'
p441
S'optiboot'
p442
sS'unlock_bits'
p443
S'0x3F'
p444
ssS'upload'
p445
(dp446
S'protocol'
p447
S'arduino'
p448
sS'maximum_size'
p449
S'28672'
p450
sS'speed'
p451
S'115200'
p452
ssS'build'
p453
(dp454
S'core'
p455
S'arduino'
p456
sS'mcu'
p457
S'atmega328p'
p458
sS'f_cpu'
p459
S'16000000L'
p460
sS'variant'
p461
S'eightanaloginputs'
p462
ssS'name'
p463
S'Arduino Mini w/ ATmega328'
p464
saa(lp465
S'mini'
p466
a(dp467
S'bootloader'
p468
(dp469
S'extended_fuses'
p470
S'0x00'
p471
sS'high_fuses'
p472
S'0xdd'
p473
sS'low_fuses'
p474
S'0xff'
p475
sS'lock_bits'
p476
S'0x0F'
p477
sS'file'
p478
S'ATmegaBOOT_168_ng.hex'
p479
sS'path'
p480
S'atmega'
p481
sS'unlock_bits'
p482
S'0x3F'
p483
ssS'upload'
p484
(dp485
S'protocol'
p486
S'arduino'
p487
sS'maximum_size'
p488
S'14336'
p489
sS'speed'
p490
S'19200'
p491
ssS'build'
p492
(dp493
S'core'
p494
S'arduino'
p495
sS'mcu'
p496
S'atmega168'
p497
sS'f_cpu'
p498
S'16000000L'
p499
sS'variant'
p500
S'eightanaloginputs'
p501
ssS'name'
p502
S'Arduino Mini w/ ATmega168'
p503
saa(lp504
S'ethernet'
p505
a(dp506
S'bootloader'
p507
(dp508
S'extended_fuses'
p509
S'0x05'
p510
sS'high_fuses'
p511
S'0xde'
p512
sS'low_fuses'
p513
S'0xff'
p514
sS'lock_bits'
p515
S'0x0F'
p516
sS'file'
p517
S'optiboot_atmega328.hex'
p518
sS'path'
p519
S'optiboot'
p520
sS'unlock_bits'
p521
S'0x3F'
p522
ssS'upload'
p523
(dp524
S'protocol'
p525
S'arduino'
p526
sS'maximum_size'
p527
S'32256'
p528
sS'speed'
p529
S'115200'
p530
ssS'build'
p531
(dp532
S'variant'
p533
S'standard'
p534
sS'mcu'
p535
S'atmega328p'
p536
sS'f_cpu'
p537
S'16000000L'
p538
sS'core'
p539
S'arduino'
p540
ssS'name'
p541
S'Arduino Ethernet'
p542
saa(lp543
S'fio'
p544
a(dp545
S'bootloader'
p546
(dp547
S'extended_fuses'
p548
S'0x05'
p549
sS'high_fuses'
p550
S'0xDA'
p551
sS'low_fuses'
p552
S'0xFF'
p553
sS'lock_bits'
p554
S'0x0F'
p555
sS'file'
p556
S'ATmegaBOOT_168_atmega328_pro_8MHz.hex'
p557
sS'path'
p558
S'arduino:atmega'
p559
sS'unlock_bits'
p560
S'0x3F'
p561
ssS'upload'
p562
(dp563
S'protocol'
p564
S'arduino'
p565
sS'maximum_size'
p566
S'30720'
p567
sS'speed'
p568
S'57600'
p569
ssS'build'
p570
(dp571
S'core'
p572
S'arduino'
p573
sS'mcu'
p574
S'atmega328p'
p575
sS'f_cpu'
p576
S'8000000L'
p577
sS'variant'
p578
S'eightanaloginputs'
p579
ssS'name'
p580
S'Arduino Fio'
p581
saa(lp582
S'bt328'
p583
a(dp584
S'bootloader'
p585
(dp586
S'extended_fuses'
p587
S'0x05'
p588
sS'high_fuses'
p589
S'0xd8'
p590
sS'low_fuses'
p591
S'0xff'
p592
sS'lock_bits'
p593
S'0x0F'
p594
sS'file'
p595
S'ATmegaBOOT_168_atmega328_bt.hex'
p596
sS'path'
p597
S'bt'
p598
sS'unlock_bits'
p599
S'0x3F'
p600
ssS'upload'
p601
(dp602
S'protocol'
p603
S'arduino'
p604
sS'maximum_size'
p605
S'28672'
p606
sS'speed'
p607
S'19200'
p608
sS'disable_flushing'
p609
S'true'
p610
ssS'build'
p611
(dp612
S'core'
p613
S'arduino'
p614
sS'mcu'
p615
S'atmega328p'
p616
sS'f_cpu'
p617
S'16000000L'
p618
sS'variant'
p619
S'eightanaloginputs'
p620
ssS'name'
p621
S'Arduino BT w/ ATmega328'
p622
saa(lp623
S'bt'
p624
a(dp625
S'bootloader'
p626
(dp627
S'extended_fuses'
p628
S'0x00'
p629
sS'high_fuses'
p630
S'0xdd'
p631
sS'low_fuses'
p632
S'0xff'
p633
sS'lock_bits'
p634
S'0x0F'
p635
sS'file'
p636
S'ATmegaBOOT_168.hex'
p637
sS'path'
p638
S'bt'
p639
sS'unlock_bits'
p640
S'0x3F'
p641
ssS'upload'
p642
(dp643
S'protocol'
p644
S'arduino'
p645
sS'maximum_size'
p646
S'14336'
p647
sS'speed'
p648
S'19200'
p649
sS'disable_flushing'
p650
S'true'
p651
ssS'build'
p652
(dp653
S'core'
p654
S'arduino'
p655
sS'mcu'
p656
S'atmega168'
p657
sS'f_cpu'
p658
S'16000000L'
p659
sS'variant'
p660
S'eightanaloginputs'
p661
ssS'name'
p662
S'Arduino BT w/ ATmega168'
p663
saa(lp664
S'LilyPadUSB'
p665
a(dp666
S'bootloader'
p667
(dp668
S'extended_fuses'
p669
S'0xce'
p670
sS'high_fuses'
p671
S'0xd8'
p672
sS'low_fuses'
p673
S'0xff'
p674
sS'lock_bits'
p675
S'0x2F'
p676
sS'file'
p677
S'Caterina-LilyPadUSB.hex'
p678
sS'path'
p679
S'caterina-LilyPadUSB'
p680
sS'unlock_bits'
p681
S'0x3F'
p682
ssS'upload'
p683
(dp684
S'protocol'
p685
S'avr109'
p686
sS'maximum_size'
p687
S'28672'
p688
sS'speed'
p689
S'57600'
p690
sS'disable_flushing'
p691
S'true'
p692
ssS'build'
p693
(dp694
S'core'
p695
S'arduino'
p696
sS'f_cpu'
p697
S'8000000L'
p698
sS'vid'
p699
S'0x1B4F'
p700
sS'pid'
p701
S'0x9208'
p702
sS'variant'
p703
S'leonardo'
p704
sS'mcu'
p705
S'atmega32u4'
p706
ssS'name'
p707
S'LilyPad Arduino USB'
p708
saa(lp709
S'lilypad328'
p710
a(dp711
S'bootloader'
p712
(dp713
S'extended_fuses'
p714
S'0x05'
p715
sS'high_fuses'
p716
S'0xDA'
p717
sS'low_fuses'
p718
S'0xFF'
p719
sS'lock_bits'
p720
S'0x0F'
p721
sS'file'
p722
S'ATmegaBOOT_168_atmega328_pro_8MHz.hex'
p723
sS'path'
p724
S'atmega'
p725
sS'unlock_bits'
p726
S'0x3F'
p727
ssS'upload'
p728
(dp729
S'protocol'
p730
S'arduino'
p731
sS'maximum_size'
p732
S'30720'
p733
sS'speed'
p734
S'57600'
p735
ssS'build'
p736
(dp737
S'core'
p738
S'arduino'
p739
sS'mcu'
p740
S'atmega328p'
p741
sS'f_cpu'
p742
S'8000000L'
p743
sS'variant'
p744
S'standard'
p745
ssS'name'
p746
S'LilyPad Arduino w/ ATmega328'
p747
saa(lp748
S'lilypad'
p749
a(dp750
S'bootloader'
p751
(dp752
S'extended_fuses'
p753
S'0x00'
p754
sS'high_fuses'
p755
S'0xdd'
p756
sS'low_fuses'
p757
S'0xe2'
p758
sS'lock_bits'
p759
S'0x0F'
p760
sS'file'
p761
S'LilyPadBOOT_168.hex'
p762
sS'path'
p763
S'lilypad'
p764
sS'unlock_bits'
p765
S'0x3F'
p766
ssS'upload'
p767
(dp768
S'protocol'
p769
S'arduino'
p770
sS'maximum_size'
p771
S'14336'
p772
sS'speed'
p773
S'19200'
p774
ssS'build'
p775
(dp776
S'core'
p777
S'arduino'
p778
sS'mcu'
p779
S'atmega168'
p780
sS'f_cpu'
p781
S'8000000L'
p782
sS'variant'
p783
S'standard'
p784
ssS'name'
p785
S'LilyPad Arduino w/ ATmega168'
p786
saa(lp787
S'pro5v328'
p788
a(dp789
S'bootloader'
p790
(dp791
S'extended_fuses'
p792
S'0x05'
p793
sS'high_fuses'
p794
S'0xDA'
p795
sS'low_fuses'
p796
S'0xFF'
p797
sS'lock_bits'
p798
S'0x0F'
p799
sS'file'
p800
S'ATmegaBOOT_168_atmega328.hex'
p801
sS'path'
p802
S'atmega'
p803
sS'unlock_bits'
p804
S'0x3F'
p805
ssS'upload'
p806
(dp807
S'protocol'
p808
S'arduino'
p809
sS'maximum_size'
p810
S'30720'
p811
sS'speed'
p812
S'57600'
p813
ssS'build'
p814
(dp815
S'core'
p816
S'arduino'
p817
sS'mcu'
p818
S'atmega328p'
p819
sS'f_cpu'
p820
S'16000000L'
p821
sS'variant'
p822
S'standard'
p823
ssS'name'
p824
S'Arduino Pro or Pro Mini (5V, 16 MHz) w/ ATmega328'
p825
saa(lp826
S'pro5v'
p827
a(dp828
S'bootloader'
p829
(dp830
S'extended_fuses'
p831
S'0x00'
p832
sS'high_fuses'
p833
S'0xdd'
p834
sS'low_fuses'
p835
S'0xff'
p836
sS'lock_bits'
p837
S'0x0F'
p838
sS'file'
p839
S'ATmegaBOOT_168_diecimila.hex'
p840
sS'path'
p841
S'atmega'
p842
sS'unlock_bits'
p843
S'0x3F'
p844
ssS'upload'
p845
(dp846
S'protocol'
p847
S'arduino'
p848
sS'maximum_size'
p849
S'14336'
p850
sS'speed'
p851
S'19200'
p852
ssS'build'
p853
(dp854
S'core'
p855
S'arduino'
p856
sS'mcu'
p857
S'atmega168'
p858
sS'f_cpu'
p859
S'16000000L'
p860
sS'variant'
p861
S'standard'
p862
ssS'name'
p863
S'Arduino Pro or Pro Mini (5V, 16 MHz) w/ ATmega168'
p864
saa(lp865
S'pro328'
p866
a(dp867
S'bootloader'
p868
(dp869
S'extended_fuses'
p870
S'0x05'
p871
sS'high_fuses'
p872
S'0xDA'
p873
sS'low_fuses'
p874
S'0xFF'
p875
sS'lock_bits'
p876
S'0x0F'
p877
sS'file'
p878
S'ATmegaBOOT_168_atmega328_pro_8MHz.hex'
p879
sS'path'
p880
S'atmega'
p881
sS'unlock_bits'
p882
S'0x3F'
p883
ssS'upload'
p884
(dp885
S'protocol'
p886
S'arduino'
p887
sS'maximum_size'
p888
S'30720'
p889
sS'speed'
p890
S'57600'
p891
ssS'build'
p892
(dp893
S'core'
p894
S'arduino'
p895
sS'mcu'
p896
S'atmega328p'
p897
sS'f_cpu'
p898
S'8000000L'
p899
sS'variant'
p900
S'standard'
p901
ssS'name'
p902
S'Arduino Pro or Pro Mini (3.3V, 8 MHz) w/ ATmega328'
p903
saa(lp904
S'pro'
p905
a(dp906
S'bootloader'
p907
(dp908
S'extended_fuses'
p909
S'0x00'
p910
sS'high_fuses'
p911
S'0xdd'
p912
sS'low_fuses'
p913
S'0xc6'
p914
sS'lock_bits'
p915
S'0x0F'
p916
sS'file'
p917
S'ATmegaBOOT_168_pro_8MHz.hex'
p918
sS'path'
p919
S'atmega'
p920
sS'unlock_bits'
p921
S'0x3F'
p922
ssS'upload'
p923
(dp924
S'protocol'
p925
S'arduino'
p926
sS'maximum_size'
p927
S'14336'
p928
sS'speed'
p929
S'19200'
p930
ssS'build'
p931
(dp932
S'core'
p933
S'arduino'
p934
sS'mcu'
p935
S'atmega168'
p936
sS'f_cpu'
p937
S'8000000L'
p938
sS'variant'
p939
S'standard'
p940
ssS'name'
p941
S'Arduino Pro or Pro Mini (3.3V, 8 MHz) w/ ATmega168'
p942
saa(lp943
S'atmega168'
p944
a(dp945
S'bootloader'
p946
(dp947
S'extended_fuses'
p948
S'0x00'
p949
sS'high_fuses'
p950
S'0xdd'
p951
sS'low_fuses'
p952
S'0xff'
p953
sS'lock_bits'
p954
S'0x0F'
p955
sS'file'
p956
S'ATmegaBOOT_168_ng.hex'
p957
sS'path'
p958
S'atmega'
p959
sS'unlock_bits'
p960
S'0x3F'
p961
ssS'upload'
p962
(dp963
S'protocol'
p964
S'arduino'
p965
sS'maximum_size'
p966
S'14336'
p967
sS'speed'
p968
S'19200'
p969
ssS'build'
p970
(dp971
S'core'
p972
S'arduino'
p973
sS'mcu'
p974
S'atmega168'
p975
sS'f_cpu'
p976
S'16000000L'
p977
sS'variant'
p978
S'standard'
p979
ssS'name'
p980
S'Arduino NG or older w/ ATmega168'
p981
saa(lp982
S'atmega8'
p983
a(dp984
S'bootloader'
p985
(dp986
S'high_fuses'
p987
S'0xca'
p988
sS'low_fuses'
p989
S'0xdf'
p990
sS'lock_bits'
p991
S'0x0F'
p992
sS'file'
p993
S'ATmegaBOOT.hex'
p994
sS'path'
p995
S'atmega8'
p996
sS'unlock_bits'
p997
S'0x3F'
p998
ssS'upload'
p999
(dp1000
S'protocol'
p1001
S'arduino'
p1002
sS'maximum_size'
p1003
S'7168'
p1004
sS'speed'
p1005
S'19200'
p1006
ssS'build'
p1007
(dp1008
S'core'
p1009
S'arduino'
p1010
sS'mcu'
p1011
S'atmega8'
p1012
sS'f_cpu'
p1013
S'16000000L'
p1014
sS'variant'
p1015
S'standard'
p1016
ssS'name'
p1017
S'Arduino NG or older w/ ATmega8'
p1018
saatp1019
Rp1020
(dp1021
S'default'
p1022
S'uno'
p1023
sbtp1024
a(S'used_libs'
p1025
(lp1026
S'/Applications/Arduino.app/Contents/Resources/Java/hardware/arduino/cores/arduino'
p1027
atp1028
a(S'make'
p1029
S'/Applications/Arduino.app/Contents/Resources/Java/hardware/tools/avr/bin/make'
p1030
tp1031
a(S'arduino_libraries_dir'
p1032
S'/Applications/Arduino.app/Contents/Resources/Java/libraries'
p1033
tp1034
a(S'cc'
p1035
S'/Applications/Arduino.app/Contents/Resources/Java/hardware/tools/avr/bin/avr-gcc'
p1036
tp1037
a(S'cflags'
p1038
g2
(g3
g4
(lp1039
tp1040
Rp1041
tp1042
a(S'cxxflags'
p1043
g2
(g3
g4
(lp1044
S'-fno-exceptions'
p1045
atp1046
Rp1047
tp1048
a(S'arduino_variants_dir'
p1049
S'/Applications/Arduino.app/Contents/Resources/Java/hardware/arduino/variants'
p1050
tp1051
a(S'serial'
p1052
S'/usr/local/bin/picocom'
p1053
tp1054
a(S'stty'
p1055
S'/bin/stty'
p1056
tp1057
a(S'version.txt'
p1058
S'/Applications/Arduino.app/Contents/Resources/Java/lib/version.txt'
p1059
tp1060
a(S'arduino_core_dir'
p1061
g1027
tp1062
a(S'boards.txt'
p1063
S'/Applications/Arduino.app/Contents/Resources/Java/hardware/arduino/boards.txt'
p1064
tp1065
a(S'avrdude.conf'
p1066
S'/Applications/Arduino.app/Contents/Resources/Java/hardware/tools/avr/etc/avrdude.conf'
p1067
tp1068
a(S'deps'
p1069
g2
(g3
g4
(lp1070
S'.build/uno/src/dependencies.d'
p1071
aS'.build/uno/arduino/dependencies.d'
p1072
atp1073
Rp1074
tp1075
a.