(lp0
(S'deps'
p1
ccopy_reg
_reconstructor
p2
(cino.utils
SpaceList
p3
c__builtin__
list
p4
(lp5
tp6
Rp7
tp8
a(S'cxx'
p9
S'/Applications/Arduino.app/Contents/Resources/Java/hardware/tools/avr/bin/avr-g++'
p10
tp11
a(S'stty'
p12
S'/bin/stty'
p13
tp14
a(S'version.txt'
p15
S'/Applications/Arduino.app/Contents/Resources/Java/lib/version.txt'
p16
tp17
a(S'cc'
p18
S'/Applications/Arduino.app/Contents/Resources/Java/hardware/tools/avr/bin/avr-gcc'
p19
tp20
a(S'arduino_libraries_dir'
p21
S'/Applications/Arduino.app/Contents/Resources/Java/libraries'
p22
tp23
a(S'arduino_core_dir'
p24
S'/Applications/Arduino.app/Contents/Resources/Java/hardware/arduino/cores/arduino'
p25
tp26
a(S'boards.txt'
p27
S'/Applications/Arduino.app/Contents/Resources/Java/hardware/arduino/boards.txt'
p28
tp29
a(S'cxxflags'
p30
g2
(g3
g4
(lp31
S'-fno-exceptions'
p32
atp33
Rp34
tp35
a(S'arduino_variants_dir'
p36
S'/Applications/Arduino.app/Contents/Resources/Java/hardware/arduino/variants'
p37
tp38
a(S'avrdude'
p39
S'/Applications/Arduino.app/Contents/Resources/Java/hardware/tools/avr/bin/avrdude'
p40
tp41
a(S'avrdude.conf'
p42
S'/Applications/Arduino.app/Contents/Resources/Java/hardware/tools/avr/etc/avrdude.conf'
p43
tp44
a(S'names'
p45
(dp46
S'cpp'
p47
S'%s.cpp'
p48
sS'obj'
p49
S'%s.o'
p50
sS'deps'
p51
S'%s.d'
p52
sS'lib'
p53
S'lib%s.a'
p54
stp55
a(S'cflags'
p56
g2
(g3
g4
(lp57
S'-mmcu=atmega328p'
p58
aS'-ffunction-sections'
p59
aS'-fdata-sections'
p60
aS'-g'
p61
aS'-Os'
p62
aS'-w'
p63
aS'-DF_CPU=16000000L'
p64
aS'-DARDUINO=100'
p65
aS'-I/Applications/Arduino.app/Contents/Resources/Java/hardware/arduino/cores/arduino'
p66
aS'-I/Applications/Arduino.app/Contents/Resources/Java/hardware/arduino/variants/standard'
p67
atp68
Rp69
tp70
a(S'elfflags'
p71
g2
(g3
g4
(lp72
g62
aS'-Wl,--gc-sections'
p73
ag58
atp74
Rp75
tp76
a(S'arduino_lib_version'
p77
g2
(cino.environment
Version
p78
c__builtin__
tuple
p79
(I1
I0
tp80
tp81
Rp82
tp83
a(S'objcopy'
p84
S'/Applications/Arduino.app/Contents/Resources/Java/hardware/tools/avr/bin/avr-objcopy'
p85
tp86
a(S'ar'
p87
S'/Applications/Arduino.app/Contents/Resources/Java/hardware/tools/avr/bin/avr-ar'
p88
tp89
a(S'board_models'
p90
cino.environment
BoardModels
p91
((lp92
(lp93
S'uno'
p94
a(dp95
S'bootloader'
p96
(dp97
S'extended_fuses'
p98
S'0x05'
p99
sS'high_fuses'
p100
S'0xde'
p101
sS'low_fuses'
p102
S'0xff'
p103
sS'lock_bits'
p104
S'0x0F'
p105
sS'file'
p106
S'optiboot_atmega328.hex'
p107
sS'path'
p108
S'optiboot'
p109
sS'unlock_bits'
p110
S'0x3F'
p111
ssS'upload'
p112
(dp113
S'protocol'
p114
S'arduino'
p115
sS'maximum_size'
p116
S'32256'
p117
sS'speed'
p118
S'115200'
p119
ssS'build'
p120
(dp121
S'core'
p122
S'arduino'
p123
sS'mcu'
p124
S'atmega328p'
p125
sS'f_cpu'
p126
S'16000000L'
p127
sS'variant'
p128
S'standard'
p129
ssS'name'
p130
S'Arduino Uno'
p131
saa(lp132
S'atmega328'
p133
a(dp134
S'bootloader'
p135
(dp136
S'extended_fuses'
p137
S'0x05'
p138
sS'high_fuses'
p139
S'0xDA'
p140
sS'low_fuses'
p141
S'0xFF'
p142
sS'lock_bits'
p143
S'0x0F'
p144
sS'file'
p145
S'ATmegaBOOT_168_atmega328.hex'
p146
sS'path'
p147
S'atmega'
p148
sS'unlock_bits'
p149
S'0x3F'
p150
ssS'upload'
p151
(dp152
S'protocol'
p153
S'arduino'
p154
sS'maximum_size'
p155
S'30720'
p156
sS'speed'
p157
S'57600'
p158
ssS'build'
p159
(dp160
S'core'
p161
S'arduino'
p162
sS'mcu'
p163
S'atmega328p'
p164
sS'f_cpu'
p165
S'16000000L'
p166
sS'variant'
p167
S'standard'
p168
ssS'name'
p169
S'Arduino Duemilanove w/ ATmega328'
p170
saa(lp171
S'diecimila'
p172
a(dp173
S'bootloader'
p174
(dp175
S'extended_fuses'
p176
S'0x00'
p177
sS'high_fuses'
p178
S'0xdd'
p179
sS'low_fuses'
p180
S'0xff'
p181
sS'lock_bits'
p182
S'0x0F'
p183
sS'file'
p184
S'ATmegaBOOT_168_diecimila.hex'
p185
sS'path'
p186
S'atmega'
p187
sS'unlock_bits'
p188
S'0x3F'
p189
ssS'upload'
p190
(dp191
S'protocol'
p192
S'arduino'
p193
sS'maximum_size'
p194
S'14336'
p195
sS'speed'
p196
S'19200'
p197
ssS'build'
p198
(dp199
S'core'
p200
S'arduino'
p201
sS'mcu'
p202
S'atmega168'
p203
sS'f_cpu'
p204
S'16000000L'
p205
sS'variant'
p206
S'standard'
p207
ssS'name'
p208
S'Arduino Diecimila or Duemilanove w/ ATmega168'
p209
saa(lp210
S'nano328'
p211
a(dp212
S'bootloader'
p213
(dp214
S'extended_fuses'
p215
S'0x05'
p216
sS'high_fuses'
p217
S'0xDA'
p218
sS'low_fuses'
p219
S'0xFF'
p220
sS'lock_bits'
p221
S'0x0F'
p222
sS'file'
p223
S'ATmegaBOOT_168_atmega328.hex'
p224
sS'path'
p225
S'atmega'
p226
sS'unlock_bits'
p227
S'0x3F'
p228
ssS'upload'
p229
(dp230
S'protocol'
p231
S'arduino'
p232
sS'maximum_size'
p233
S'30720'
p234
sS'speed'
p235
S'57600'
p236
ssS'build'
p237
(dp238
S'core'
p239
S'arduino'
p240
sS'mcu'
p241
S'atmega328p'
p242
sS'f_cpu'
p243
S'16000000L'
p244
sS'variant'
p245
S'eightanaloginputs'
p246
ssS'name'
p247
S'Arduino Nano w/ ATmega328'
p248
saa(lp249
S'nano'
p250
a(dp251
S'bootloader'
p252
(dp253
S'extended_fuses'
p254
S'0x00'
p255
sS'high_fuses'
p256
S'0xdd'
p257
sS'low_fuses'
p258
S'0xff'
p259
sS'lock_bits'
p260
S'0x0F'
p261
sS'file'
p262
S'ATmegaBOOT_168_diecimila.hex'
p263
sS'path'
p264
S'atmega'
p265
sS'unlock_bits'
p266
S'0x3F'
p267
ssS'upload'
p268
(dp269
S'protocol'
p270
S'arduino'
p271
sS'maximum_size'
p272
S'14336'
p273
sS'speed'
p274
S'19200'
p275
ssS'build'
p276
(dp277
S'core'
p278
S'arduino'
p279
sS'mcu'
p280
S'atmega168'
p281
sS'f_cpu'
p282
S'16000000L'
p283
sS'variant'
p284
S'eightanaloginputs'
p285
ssS'name'
p286
S'Arduino Nano w/ ATmega168'
p287
saa(lp288
S'mega2560'
p289
a(dp290
S'bootloader'
p291
(dp292
S'extended_fuses'
p293
S'0xFD'
p294
sS'high_fuses'
p295
S'0xD8'
p296
sS'low_fuses'
p297
S'0xFF'
p298
sS'lock_bits'
p299
S'0x0F'
p300
sS'file'
p301
S'stk500boot_v2_mega2560.hex'
p302
sS'path'
p303
S'stk500v2'
p304
sS'unlock_bits'
p305
S'0x3F'
p306
ssS'upload'
p307
(dp308
S'protocol'
p309
S'wiring'
p310
sS'maximum_size'
p311
S'258048'
p312
sS'speed'
p313
S'115200'
p314
ssS'build'
p315
(dp316
S'core'
p317
S'arduino'
p318
sS'mcu'
p319
S'atmega2560'
p320
sS'f_cpu'
p321
S'16000000L'
p322
sS'variant'
p323
S'mega'
p324
ssS'name'
p325
S'Arduino Mega 2560 or Mega ADK'
p326
saa(lp327
S'mega'
p328
a(dp329
S'bootloader'
p330
(dp331
S'extended_fuses'
p332
S'0xF5'
p333
sS'high_fuses'
p334
S'0xDA'
p335
sS'low_fuses'
p336
S'0xFF'
p337
sS'lock_bits'
p338
S'0x0F'
p339
sS'file'
p340
S'ATmegaBOOT_168_atmega1280.hex'
p341
sS'path'
p342
S'atmega'
p343
sS'unlock_bits'
p344
S'0x3F'
p345
ssS'upload'
p346
(dp347
S'protocol'
p348
S'arduino'
p349
sS'maximum_size'
p350
S'126976'
p351
sS'speed'
p352
S'57600'
p353
ssS'build'
p354
(dp355
S'core'
p356
S'arduino'
p357
sS'mcu'
p358
S'atmega1280'
p359
sS'f_cpu'
p360
S'16000000L'
p361
sS'variant'
p362
S'mega'
p363
ssS'name'
p364
S'Arduino Mega (ATmega1280)'
p365
saa(lp366
S'leonardo'
p367
a(dp368
S'bootloader'
p369
(dp370
S'extended_fuses'
p371
S'0xcb'
p372
sS'high_fuses'
p373
S'0xd8'
p374
sS'low_fuses'
p375
S'0xff'
p376
sS'lock_bits'
p377
S'0x2F'
p378
sS'file'
p379
S'Caterina-Leonardo.hex'
p380
sS'path'
p381
S'caterina'
p382
sS'unlock_bits'
p383
S'0x3F'
p384
ssS'upload'
p385
(dp386
S'protocol'
p387
S'avr109'
p388
sS'maximum_size'
p389
S'28672'
p390
sS'speed'
p391
S'57600'
p392
sS'disable_flushing'
p393
S'true'
p394
ssS'build'
p395
(dp396
S'core'
p397
S'arduino'
p398
sS'f_cpu'
p399
S'16000000L'
p400
sS'vid'
p401
S'0x2341'
p402
sS'pid'
p403
S'0x8036'
p404
sS'variant'
p405
S'leonardo'
p406
sS'mcu'
p407
S'atmega32u4'
p408
ssS'name'
p409
S'Arduino Leonardo'
p410
saa(lp411
S'micro'
p412
a(dp413
S'bootloader'
p414
(dp415
S'extended_fuses'
p416
S'0xcb'
p417
sS'high_fuses'
p418
S'0xd8'
p419
sS'low_fuses'
p420
S'0xff'
p421
sS'lock_bits'
p422
S'0x2F'
p423
sS'file'
p424
S'Caterina-Micro.hex'
p425
sS'path'
p426
S'caterina'
p427
sS'unlock_bits'
p428
S'0x3F'
p429
ssS'upload'
p430
(dp431
S'protocol'
p432
S'avr109'
p433
sS'maximum_size'
p434
S'28672'
p435
sS'speed'
p436
S'57600'
p437
sS'disable_flushing'
p438
S'true'
p439
ssS'build'
p440
(dp441
S'core'
p442
S'arduino'
p443
sS'f_cpu'
p444
S'16000000L'
p445
sS'vid'
p446
S'0x2341'
p447
sS'pid'
p448
S'0x8037'
p449
sS'variant'
p450
S'micro'
p451
sS'mcu'
p452
S'atmega32u4'
p453
ssS'name'
p454
S'Arduino Micro'
p455
saa(lp456
S'mini328'
p457
a(dp458
S'bootloader'
p459
(dp460
S'extended_fuses'
p461
S'0x05'
p462
sS'high_fuses'
p463
S'0xd8'
p464
sS'low_fuses'
p465
S'0xff'
p466
sS'lock_bits'
p467
S'0x0F'
p468
sS'file'
p469
S'optiboot_atmega328-Mini.hex'
p470
sS'path'
p471
S'optiboot'
p472
sS'unlock_bits'
p473
S'0x3F'
p474
ssS'upload'
p475
(dp476
S'protocol'
p477
S'arduino'
p478
sS'maximum_size'
p479
S'28672'
p480
sS'speed'
p481
S'115200'
p482
ssS'build'
p483
(dp484
S'core'
p485
S'arduino'
p486
sS'mcu'
p487
S'atmega328p'
p488
sS'f_cpu'
p489
S'16000000L'
p490
sS'variant'
p491
S'eightanaloginputs'
p492
ssS'name'
p493
S'Arduino Mini w/ ATmega328'
p494
saa(lp495
S'mini'
p496
a(dp497
S'bootloader'
p498
(dp499
S'extended_fuses'
p500
S'0x00'
p501
sS'high_fuses'
p502
S'0xdd'
p503
sS'low_fuses'
p504
S'0xff'
p505
sS'lock_bits'
p506
S'0x0F'
p507
sS'file'
p508
S'ATmegaBOOT_168_ng.hex'
p509
sS'path'
p510
S'atmega'
p511
sS'unlock_bits'
p512
S'0x3F'
p513
ssS'upload'
p514
(dp515
S'protocol'
p516
S'arduino'
p517
sS'maximum_size'
p518
S'14336'
p519
sS'speed'
p520
S'19200'
p521
ssS'build'
p522
(dp523
S'core'
p524
S'arduino'
p525
sS'mcu'
p526
S'atmega168'
p527
sS'f_cpu'
p528
S'16000000L'
p529
sS'variant'
p530
S'eightanaloginputs'
p531
ssS'name'
p532
S'Arduino Mini w/ ATmega168'
p533
saa(lp534
S'ethernet'
p535
a(dp536
S'bootloader'
p537
(dp538
S'extended_fuses'
p539
S'0x05'
p540
sS'high_fuses'
p541
S'0xde'
p542
sS'low_fuses'
p543
S'0xff'
p544
sS'lock_bits'
p545
S'0x0F'
p546
sS'file'
p547
S'optiboot_atmega328.hex'
p548
sS'path'
p549
S'optiboot'
p550
sS'unlock_bits'
p551
S'0x3F'
p552
ssS'upload'
p553
(dp554
S'protocol'
p555
S'arduino'
p556
sS'maximum_size'
p557
S'32256'
p558
sS'speed'
p559
S'115200'
p560
ssS'build'
p561
(dp562
S'variant'
p563
S'standard'
p564
sS'mcu'
p565
S'atmega328p'
p566
sS'f_cpu'
p567
S'16000000L'
p568
sS'core'
p569
S'arduino'
p570
ssS'name'
p571
S'Arduino Ethernet'
p572
saa(lp573
S'fio'
p574
a(dp575
S'bootloader'
p576
(dp577
S'extended_fuses'
p578
S'0x05'
p579
sS'high_fuses'
p580
S'0xDA'
p581
sS'low_fuses'
p582
S'0xFF'
p583
sS'lock_bits'
p584
S'0x0F'
p585
sS'file'
p586
S'ATmegaBOOT_168_atmega328_pro_8MHz.hex'
p587
sS'path'
p588
S'arduino:atmega'
p589
sS'unlock_bits'
p590
S'0x3F'
p591
ssS'upload'
p592
(dp593
S'protocol'
p594
S'arduino'
p595
sS'maximum_size'
p596
S'30720'
p597
sS'speed'
p598
S'57600'
p599
ssS'build'
p600
(dp601
S'core'
p602
S'arduino'
p603
sS'mcu'
p604
S'atmega328p'
p605
sS'f_cpu'
p606
S'8000000L'
p607
sS'variant'
p608
S'eightanaloginputs'
p609
ssS'name'
p610
S'Arduino Fio'
p611
saa(lp612
S'bt328'
p613
a(dp614
S'bootloader'
p615
(dp616
S'extended_fuses'
p617
S'0x05'
p618
sS'high_fuses'
p619
S'0xd8'
p620
sS'low_fuses'
p621
S'0xff'
p622
sS'lock_bits'
p623
S'0x0F'
p624
sS'file'
p625
S'ATmegaBOOT_168_atmega328_bt.hex'
p626
sS'path'
p627
S'bt'
p628
sS'unlock_bits'
p629
S'0x3F'
p630
ssS'upload'
p631
(dp632
S'protocol'
p633
S'arduino'
p634
sS'maximum_size'
p635
S'28672'
p636
sS'speed'
p637
S'19200'
p638
sS'disable_flushing'
p639
S'true'
p640
ssS'build'
p641
(dp642
S'core'
p643
S'arduino'
p644
sS'mcu'
p645
S'atmega328p'
p646
sS'f_cpu'
p647
S'16000000L'
p648
sS'variant'
p649
S'eightanaloginputs'
p650
ssS'name'
p651
S'Arduino BT w/ ATmega328'
p652
saa(lp653
S'bt'
p654
a(dp655
S'bootloader'
p656
(dp657
S'extended_fuses'
p658
S'0x00'
p659
sS'high_fuses'
p660
S'0xdd'
p661
sS'low_fuses'
p662
S'0xff'
p663
sS'lock_bits'
p664
S'0x0F'
p665
sS'file'
p666
S'ATmegaBOOT_168.hex'
p667
sS'path'
p668
S'bt'
p669
sS'unlock_bits'
p670
S'0x3F'
p671
ssS'upload'
p672
(dp673
S'protocol'
p674
S'arduino'
p675
sS'maximum_size'
p676
S'14336'
p677
sS'speed'
p678
S'19200'
p679
sS'disable_flushing'
p680
S'true'
p681
ssS'build'
p682
(dp683
S'core'
p684
S'arduino'
p685
sS'mcu'
p686
S'atmega168'
p687
sS'f_cpu'
p688
S'16000000L'
p689
sS'variant'
p690
S'eightanaloginputs'
p691
ssS'name'
p692
S'Arduino BT w/ ATmega168'
p693
saa(lp694
S'LilyPadUSB'
p695
a(dp696
S'bootloader'
p697
(dp698
S'extended_fuses'
p699
S'0xce'
p700
sS'high_fuses'
p701
S'0xd8'
p702
sS'low_fuses'
p703
S'0xff'
p704
sS'lock_bits'
p705
S'0x2F'
p706
sS'file'
p707
S'Caterina-LilyPadUSB.hex'
p708
sS'path'
p709
S'caterina-LilyPadUSB'
p710
sS'unlock_bits'
p711
S'0x3F'
p712
ssS'upload'
p713
(dp714
S'protocol'
p715
S'avr109'
p716
sS'maximum_size'
p717
S'28672'
p718
sS'speed'
p719
S'57600'
p720
sS'disable_flushing'
p721
S'true'
p722
ssS'build'
p723
(dp724
S'core'
p725
S'arduino'
p726
sS'f_cpu'
p727
S'8000000L'
p728
sS'vid'
p729
S'0x1B4F'
p730
sS'pid'
p731
S'0x9208'
p732
sS'variant'
p733
S'leonardo'
p734
sS'mcu'
p735
S'atmega32u4'
p736
ssS'name'
p737
S'LilyPad Arduino USB'
p738
saa(lp739
S'lilypad328'
p740
a(dp741
S'bootloader'
p742
(dp743
S'extended_fuses'
p744
S'0x05'
p745
sS'high_fuses'
p746
S'0xDA'
p747
sS'low_fuses'
p748
S'0xFF'
p749
sS'lock_bits'
p750
S'0x0F'
p751
sS'file'
p752
S'ATmegaBOOT_168_atmega328_pro_8MHz.hex'
p753
sS'path'
p754
S'atmega'
p755
sS'unlock_bits'
p756
S'0x3F'
p757
ssS'upload'
p758
(dp759
S'protocol'
p760
S'arduino'
p761
sS'maximum_size'
p762
S'30720'
p763
sS'speed'
p764
S'57600'
p765
ssS'build'
p766
(dp767
S'core'
p768
S'arduino'
p769
sS'mcu'
p770
S'atmega328p'
p771
sS'f_cpu'
p772
S'8000000L'
p773
sS'variant'
p774
S'standard'
p775
ssS'name'
p776
S'LilyPad Arduino w/ ATmega328'
p777
saa(lp778
S'lilypad'
p779
a(dp780
S'bootloader'
p781
(dp782
S'extended_fuses'
p783
S'0x00'
p784
sS'high_fuses'
p785
S'0xdd'
p786
sS'low_fuses'
p787
S'0xe2'
p788
sS'lock_bits'
p789
S'0x0F'
p790
sS'file'
p791
S'LilyPadBOOT_168.hex'
p792
sS'path'
p793
S'lilypad'
p794
sS'unlock_bits'
p795
S'0x3F'
p796
ssS'upload'
p797
(dp798
S'protocol'
p799
S'arduino'
p800
sS'maximum_size'
p801
S'14336'
p802
sS'speed'
p803
S'19200'
p804
ssS'build'
p805
(dp806
S'core'
p807
S'arduino'
p808
sS'mcu'
p809
S'atmega168'
p810
sS'f_cpu'
p811
S'8000000L'
p812
sS'variant'
p813
S'standard'
p814
ssS'name'
p815
S'LilyPad Arduino w/ ATmega168'
p816
saa(lp817
S'pro5v328'
p818
a(dp819
S'bootloader'
p820
(dp821
S'extended_fuses'
p822
S'0x05'
p823
sS'high_fuses'
p824
S'0xDA'
p825
sS'low_fuses'
p826
S'0xFF'
p827
sS'lock_bits'
p828
S'0x0F'
p829
sS'file'
p830
S'ATmegaBOOT_168_atmega328.hex'
p831
sS'path'
p832
S'atmega'
p833
sS'unlock_bits'
p834
S'0x3F'
p835
ssS'upload'
p836
(dp837
S'protocol'
p838
S'arduino'
p839
sS'maximum_size'
p840
S'30720'
p841
sS'speed'
p842
S'57600'
p843
ssS'build'
p844
(dp845
S'core'
p846
S'arduino'
p847
sS'mcu'
p848
S'atmega328p'
p849
sS'f_cpu'
p850
S'16000000L'
p851
sS'variant'
p852
S'standard'
p853
ssS'name'
p854
S'Arduino Pro or Pro Mini (5V, 16 MHz) w/ ATmega328'
p855
saa(lp856
S'pro5v'
p857
a(dp858
S'bootloader'
p859
(dp860
S'extended_fuses'
p861
S'0x00'
p862
sS'high_fuses'
p863
S'0xdd'
p864
sS'low_fuses'
p865
S'0xff'
p866
sS'lock_bits'
p867
S'0x0F'
p868
sS'file'
p869
S'ATmegaBOOT_168_diecimila.hex'
p870
sS'path'
p871
S'atmega'
p872
sS'unlock_bits'
p873
S'0x3F'
p874
ssS'upload'
p875
(dp876
S'protocol'
p877
S'arduino'
p878
sS'maximum_size'
p879
S'14336'
p880
sS'speed'
p881
S'19200'
p882
ssS'build'
p883
(dp884
S'core'
p885
S'arduino'
p886
sS'mcu'
p887
S'atmega168'
p888
sS'f_cpu'
p889
S'16000000L'
p890
sS'variant'
p891
S'standard'
p892
ssS'name'
p893
S'Arduino Pro or Pro Mini (5V, 16 MHz) w/ ATmega168'
p894
saa(lp895
S'pro328'
p896
a(dp897
S'bootloader'
p898
(dp899
S'extended_fuses'
p900
S'0x05'
p901
sS'high_fuses'
p902
S'0xDA'
p903
sS'low_fuses'
p904
S'0xFF'
p905
sS'lock_bits'
p906
S'0x0F'
p907
sS'file'
p908
S'ATmegaBOOT_168_atmega328_pro_8MHz.hex'
p909
sS'path'
p910
S'atmega'
p911
sS'unlock_bits'
p912
S'0x3F'
p913
ssS'upload'
p914
(dp915
S'protocol'
p916
S'arduino'
p917
sS'maximum_size'
p918
S'30720'
p919
sS'speed'
p920
S'57600'
p921
ssS'build'
p922
(dp923
S'core'
p924
S'arduino'
p925
sS'mcu'
p926
S'atmega328p'
p927
sS'f_cpu'
p928
S'8000000L'
p929
sS'variant'
p930
S'standard'
p931
ssS'name'
p932
S'Arduino Pro or Pro Mini (3.3V, 8 MHz) w/ ATmega328'
p933
saa(lp934
S'pro'
p935
a(dp936
S'bootloader'
p937
(dp938
S'extended_fuses'
p939
S'0x00'
p940
sS'high_fuses'
p941
S'0xdd'
p942
sS'low_fuses'
p943
S'0xc6'
p944
sS'lock_bits'
p945
S'0x0F'
p946
sS'file'
p947
S'ATmegaBOOT_168_pro_8MHz.hex'
p948
sS'path'
p949
S'atmega'
p950
sS'unlock_bits'
p951
S'0x3F'
p952
ssS'upload'
p953
(dp954
S'protocol'
p955
S'arduino'
p956
sS'maximum_size'
p957
S'14336'
p958
sS'speed'
p959
S'19200'
p960
ssS'build'
p961
(dp962
S'core'
p963
S'arduino'
p964
sS'mcu'
p965
S'atmega168'
p966
sS'f_cpu'
p967
S'8000000L'
p968
sS'variant'
p969
S'standard'
p970
ssS'name'
p971
S'Arduino Pro or Pro Mini (3.3V, 8 MHz) w/ ATmega168'
p972
saa(lp973
S'atmega168'
p974
a(dp975
S'bootloader'
p976
(dp977
S'extended_fuses'
p978
S'0x00'
p979
sS'high_fuses'
p980
S'0xdd'
p981
sS'low_fuses'
p982
S'0xff'
p983
sS'lock_bits'
p984
S'0x0F'
p985
sS'file'
p986
S'ATmegaBOOT_168_ng.hex'
p987
sS'path'
p988
S'atmega'
p989
sS'unlock_bits'
p990
S'0x3F'
p991
ssS'upload'
p992
(dp993
S'protocol'
p994
S'arduino'
p995
sS'maximum_size'
p996
S'14336'
p997
sS'speed'
p998
S'19200'
p999
ssS'build'
p1000
(dp1001
S'core'
p1002
S'arduino'
p1003
sS'mcu'
p1004
S'atmega168'
p1005
sS'f_cpu'
p1006
S'16000000L'
p1007
sS'variant'
p1008
S'standard'
p1009
ssS'name'
p1010
S'Arduino NG or older w/ ATmega168'
p1011
saa(lp1012
S'atmega8'
p1013
a(dp1014
S'bootloader'
p1015
(dp1016
S'high_fuses'
p1017
S'0xca'
p1018
sS'low_fuses'
p1019
S'0xdf'
p1020
sS'lock_bits'
p1021
S'0x0F'
p1022
sS'file'
p1023
S'ATmegaBOOT.hex'
p1024
sS'path'
p1025
S'atmega8'
p1026
sS'unlock_bits'
p1027
S'0x3F'
p1028
ssS'upload'
p1029
(dp1030
S'protocol'
p1031
S'arduino'
p1032
sS'maximum_size'
p1033
S'7168'
p1034
sS'speed'
p1035
S'19200'
p1036
ssS'build'
p1037
(dp1038
S'core'
p1039
S'arduino'
p1040
sS'mcu'
p1041
S'atmega8'
p1042
sS'f_cpu'
p1043
S'16000000L'
p1044
sS'variant'
p1045
S'standard'
p1046
ssS'name'
p1047
S'Arduino NG or older w/ ATmega8'
p1048
saatp1049
Rp1050
(dp1051
S'default'
p1052
S'uno'
p1053
sbtp1054
a(S'serial'
p1055
S'/usr/local/bin/picocom'
p1056
tp1057
a.